; Function Attrs: mustprogress nofree nounwind memory(argmem: readwrite) uwtable
define noundef ptr @_ZN10duckdb_hll7sdstrimEPcPKc(ptr noundef returned %0, ptr noundef readonly %1) local_unnamed_addr #19 {
  %3 = ptrtoint ptr %0 to i64
  %4 = getelementptr inbounds i8, ptr %0, i64 -1
  %5 = load i8, ptr %4, align 1, !tbaa !20
  %6 = zext i8 %5 to i32
  %7 = and i32 %6, 7
  switch i32 %7, label %_ZN10duckdb_hllL6sdslenEPc.exit [
    i32 0, label %8
    i32 1, label %11
    i32 2, label %15
    i32 3, label %19
    i32 4, label %23
  ]

8:                                                ; preds = %2
  %9 = lshr i32 %6, 3
  %10 = zext nneg i32 %9 to i64
  br label %_ZN10duckdb_hllL6sdslenEPc.exit

11:                                               ; preds = %2
  %12 = getelementptr inbounds i8, ptr %0, i64 -4
  %13 = load i8, ptr %12, align 1, !tbaa !3
  %14 = zext i8 %13 to i64
  br label %_ZN10duckdb_hllL6sdslenEPc.exit

15:                                               ; preds = %2
  %16 = getelementptr inbounds i8, ptr %0, i64 -6
  %17 = load i16, ptr %16, align 1, !tbaa !8
  %18 = zext i16 %17 to i64
  br label %_ZN10duckdb_hllL6sdslenEPc.exit

19:                                               ; preds = %2
  %20 = getelementptr inbounds i8, ptr %0, i64 -10
  %21 = load i32, ptr %20, align 1, !tbaa !12
  %22 = zext i32 %21 to i64
  br label %_ZN10duckdb_hllL6sdslenEPc.exit

23:                                               ; preds = %2
  %24 = getelementptr inbounds i8, ptr %0, i64 -18
  %25 = load i64, ptr %24, align 1, !tbaa !16
  br label %_ZN10duckdb_hllL6sdslenEPc.exit

_ZN10duckdb_hllL6sdslenEPc.exit:                  ; preds = %2, %8, %11, %15, %19, %23
  %.0.i = phi i64 [ %25, %23 ], [ %22, %19 ], [ %18, %15 ], [ %14, %11 ], [ %10, %8 ], [ 0, %2 ]
  %26 = getelementptr inbounds nuw i8, ptr %0, i64 %.0.i
  %27 = getelementptr inbounds i8, ptr %26, i64 -1
  %.not33 = icmp ugt ptr %0, %27
  br i1 %.not33, label %.critedge, label %.lr.ph

.lr.ph:                                           ; preds = %_ZN10duckdb_hllL6sdslenEPc.exit, %31
  %.034 = phi ptr [ %32, %31 ], [ %0, %_ZN10duckdb_hllL6sdslenEPc.exit ]
  %28 = load i8, ptr %.034, align 1, !tbaa !20
  %29 = sext i8 %28 to i32
  %30 = tail call noundef ptr @strchr(ptr noundef nonnull dereferenceable(1) %1, i32 noundef %29) #29
  %.not30 = icmp eq ptr %30, null
  br i1 %.not30, label %.critedge.loopexit, label %31

31:                                               ; preds = %.lr.ph
  %32 = getelementptr inbounds nuw i8, ptr %.034, i64 1
  %.not = icmp ugt ptr %32, %27
  br i1 %.not, label %.critedge.loopexit, label %.lr.ph, !llvm.loop !34

.critedge.loopexit:                               ; preds = %31, %.lr.ph
  %.0.lcssa.ph = phi ptr [ %.034, %.lr.ph ], [ %32, %31 ]
  %.pre = ptrtoint ptr %.0.lcssa.ph to i64
  br label %.critedge

.critedge:                                        ; preds = %.critedge.loopexit, %_ZN10duckdb_hllL6sdslenEPc.exit
  %.0.lcssa42.pre-phi = phi i64 [ %.pre, %.critedge.loopexit ], [ %3, %_ZN10duckdb_hllL6sdslenEPc.exit ]
  %.0.lcssa = phi ptr [ %.0.lcssa.ph, %.critedge.loopexit ], [ %0, %_ZN10duckdb_hllL6sdslenEPc.exit ]
  %33 = icmp ugt ptr %27, %.0.lcssa
  br i1 %33, label %.lr.ph38.preheader, label %.critedge2

.lr.ph38.preheader:                               ; preds = %.critedge
  %34 = sub i64 %.0.lcssa42.pre-phi, %3
  %scevgep = getelementptr i8, ptr %0, i64 %34
  br label %.lr.ph38

.lr.ph38:                                         ; preds = %.lr.ph38.preheader, %38
  %.02837 = phi ptr [ %39, %38 ], [ %27, %.lr.ph38.preheader ]
  %35 = load i8, ptr %.02837, align 1, !tbaa !20
  %36 = sext i8 %35 to i32
  %37 = tail call noundef ptr @strchr(ptr noundef nonnull dereferenceable(1) %1, i32 noundef %36) #29
  %.not31 = icmp eq ptr %37, null
  br i1 %.not31, label %.critedge2, label %38

38:                                               ; preds = %.lr.ph38
  %39 = getelementptr inbounds i8, ptr %.02837, i64 -1
  %40 = icmp ugt ptr %39, %.0.lcssa
  br i1 %40, label %.lr.ph38, label %.critedge2, !llvm.loop !35

.critedge2:                                       ; preds = %.lr.ph38, %38, %.critedge
  %.028.lcssa = phi ptr [ %27, %.critedge ], [ %scevgep, %38 ], [ %.02837, %.lr.ph38 ]
  %41 = icmp ugt ptr %.0.lcssa, %.028.lcssa
  %42 = ptrtoint ptr %.028.lcssa to i64
  %reass.sub = sub i64 %42, %.0.lcssa42.pre-phi
  %43 = add i64 %reass.sub, 1
  %44 = select i1 %41, i64 0, i64 %43
  %.not32 = icmp eq ptr %0, %.0.lcssa
  br i1 %.not32, label %46, label %45

45:                                               ; preds = %.critedge2
  tail call void @llvm.memmove.p0.p0.i64(ptr align 1 %0, ptr nonnull align 1 %.0.lcssa, i64 %44, i1 false)
  br label %46

46:                                               ; preds = %45, %.critedge2
  %47 = getelementptr inbounds nuw i8, ptr %0, i64 %44
  store i8 0, ptr %47, align 1, !tbaa !20
  %48 = and i8 %5, 7
  switch i8 %48, label %_ZN10duckdb_hllL9sdssetlenEPcm.exit [
    i8 0, label %49
    i8 1, label %51
    i8 2, label %54
    i8 3, label %57
    i8 4, label %60
  ]

49:                                               ; preds = %46
  %.tr.i = trunc i64 %44 to i8
  %50 = shl i8 %.tr.i, 3
  store i8 %50, ptr %4, align 1, !tbaa !20
  br label %_ZN10duckdb_hllL9sdssetlenEPcm.exit

51:                                               ; preds = %46
  %52 = trunc i64 %44 to i8
  %53 = getelementptr inbounds i8, ptr %0, i64 -4
  store i8 %52, ptr %53, align 1, !tbaa !3
  br label %_ZN10duckdb_hllL9sdssetlenEPcm.exit

54:                                               ; preds = %46
  %55 = trunc i64 %44 to i16
  %56 = getelementptr inbounds i8, ptr %0, i64 -6
  store i16 %55, ptr %56, align 1, !tbaa !8
  br label %_ZN10duckdb_hllL9sdssetlenEPcm.exit

57:                                               ; preds = %46
  %58 = trunc i64 %44 to i32
  %59 = getelementptr inbounds i8, ptr %0, i64 -10
  store i32 %58, ptr %59, align 1, !tbaa !12
  br label %_ZN10duckdb_hllL9sdssetlenEPcm.exit

60:                                               ; preds = %46
  %61 = getelementptr inbounds i8, ptr %0, i64 -18
  store i64 %44, ptr %61, align 1, !tbaa !16
  br label %_ZN10duckdb_hllL9sdssetlenEPcm.exit

_ZN10duckdb_hllL9sdssetlenEPcm.exit:              ; preds = %46, %49, %51, %54, %57, %60
  ret ptr %0
}